; Function Attrs: mustprogress nounwind uwtable
define internal fastcc void @_ZNSt10unique_ptrI9avifImageN2cv12_GLOBAL__N_116AvifImageDeleterEED2Ev(ptr noundef nonnull align 8 captures(none) dereferenceable(8) %0) unnamed_addr #5 align 2 personality ptr @__gxx_personality_v0 {
  %2 = load ptr, ptr %0, align 8, !tbaa !170
  %.not = icmp eq ptr %2, null
  br i1 %.not, label %_ZN2cv12_GLOBAL__N_116AvifImageDeleterclEP9avifImage.exit, label %3

3:                                                ; preds = %1
  invoke void @avifImageDestroy(ptr noundef nonnull %2)
          to label %_ZN2cv12_GLOBAL__N_116AvifImageDeleterclEP9avifImage.exit unwind label %4

_ZN2cv12_GLOBAL__N_116AvifImageDeleterclEP9avifImage.exit: ; preds = %3, %1
  store ptr null, ptr %0, align 8, !tbaa !170
  ret void

4:                                                ; preds = %3
  %5 = landingpad { ptr, i32 }
          catch ptr null
  %6 = extractvalue { ptr, i32 } %5, 0
  tail call void @__clang_call_terminate(ptr %6) #21
  unreachable
}